; Function Attrs: mustprogress nofree norecurse nounwind null_pointer_is_valid sspstrong willreturn memory(readwrite, inaccessiblemem: none) uwtable
define void @_ZN9PrefsItemC2E7QStringPS_(ptr noundef writeonly align 8 captures(none) dereferenceable_or_null(105) initializes((0, 105)) %0, ptr noundef readonly captures(none) %1, ptr noundef %2) unnamed_addr #5 align 2 personality ptr @__gxx_personality_v0 {
  %4 = getelementptr inbounds nuw i8, ptr %0, i64 8
  store ptr %2, ptr %4, align 8
  %5 = getelementptr inbounds nuw i8, ptr %0, i64 16
  tail call void @llvm.memset.p0.i64(ptr noundef nonnull align 8 dereferenceable(24) dereferenceable_or_null(24) %5, i8 0, i64 24, i1 false)
  store ptr getelementptr inbounds nuw inrange(-16, 16) (i8, ptr @_ZTV9PrefsItem, i64 16), ptr %0, align 8
  %6 = getelementptr inbounds nuw i8, ptr %0, i64 40
  %7 = getelementptr inbounds nuw i8, ptr %0, i64 56
  tail call void @llvm.memset.p0.i64(ptr noundef nonnull align 8 dereferenceable(16) %6, i8 0, i64 16, i1 false)
  %8 = load ptr, ptr %1, align 8
  store ptr %8, ptr %7, align 8
  %9 = getelementptr inbounds nuw i8, ptr %0, i64 64
  %10 = getelementptr inbounds nuw i8, ptr %1, i64 8
  %11 = load ptr, ptr %10, align 8
  store ptr %11, ptr %9, align 8
  %12 = getelementptr inbounds nuw i8, ptr %0, i64 72
  %13 = getelementptr inbounds nuw i8, ptr %1, i64 16
  %14 = load i64, ptr %13, align 8
  store i64 %14, ptr %12, align 8
  %.not.i.i.i = icmp eq ptr %8, null
  br i1 %.not.i.i.i, label %_ZN7QStringC2ERKS_.exit, label %15

15:                                               ; preds = %3
  %16 = atomicrmw add ptr %8, i32 1 seq_cst, align 4
  br label %_ZN7QStringC2ERKS_.exit

_ZN7QStringC2ERKS_.exit:                          ; preds = %3, %15
  %17 = getelementptr inbounds nuw i8, ptr %0, i64 80
  tail call void @llvm.memset.p0.i64(ptr noundef nonnull align 8 dereferenceable(25) %17, i8 0, i64 25, i1 false)
  ret void
}